target datalayout = "e-m:e-p270:32:32-p271:32:32-p272:64:64-i64:64-i128:128-f80:128-n8:16:32:64-S128"
target triple = "x86_64-pc-linux-gnu"

%struct._Node = type { %union.anon.35 }
%union.anon.35 = type { %struct.BagNode }
%struct.BagNode = type { i32, i32, ptr, ptr, i32, %union.anon.37, i32, i32, i32, i32, i32 }
%union.anon.37 = type { %struct.anon.40 }
%struct.anon.40 = type { ptr, ptr }
%struct.anon.36 = type { i32, i32, ptr, ptr }
%struct.ConsAltNode = type { i32, i32, ptr, ptr, ptr }
%struct.QuantNode = type { i32, i32, ptr, ptr, i32, i32, i32, i32, ptr, ptr, i32, i32 }

; Function Attrs: nounwind uwtable
define internal i32 @quantifiers_memory_node_info(ptr noundef %0) #0 {
  %2 = alloca i32, align 4
  %3 = alloca ptr, align 8
  %4 = alloca i32, align 4
  %5 = alloca i32, align 4
  %6 = alloca i32, align 4
  %7 = alloca ptr, align 8
  %8 = alloca ptr, align 8
  %9 = alloca i32, align 4
  store ptr %0, ptr %3, align 8, !tbaa !47
  call void @llvm.lifetime.start.p0(i64 4, ptr %4) #9
  store i32 1, ptr %4, align 4, !tbaa !4
  %10 = load ptr, ptr %3, align 8, !tbaa !47
  %11 = getelementptr inbounds nuw %struct._Node, ptr %10, i32 0, i32 0
  %12 = getelementptr inbounds nuw %struct.anon.36, ptr %11, i32 0, i32 0
  %13 = load i32, ptr %12, align 8, !tbaa !32
  switch i32 %13, label %131 [
    i32 7, label %14
    i32 8, label %14
    i32 9, label %34
    i32 4, label %49
    i32 5, label %63
    i32 3, label %130
    i32 0, label %130
    i32 2, label %130
    i32 1, label %130
    i32 6, label %130
    i32 10, label %130
  ]

14:                                               ; preds = %1, %1
  call void @llvm.lifetime.start.p0(i64 4, ptr %5) #9
  br label %15

15:                                               ; preds = %27, %14
  %16 = load ptr, ptr %3, align 8, !tbaa !47
  %17 = getelementptr inbounds nuw %struct._Node, ptr %16, i32 0, i32 0
  %18 = getelementptr inbounds nuw %struct.ConsAltNode, ptr %17, i32 0, i32 3
  %19 = load ptr, ptr %18, align 8, !tbaa !32
  %20 = call i32 @quantifiers_memory_node_info(ptr noundef %19)
  store i32 %20, ptr %5, align 4, !tbaa !4
  %21 = load i32, ptr %5, align 4, !tbaa !4
  %22 = load i32, ptr %4, align 4, !tbaa !4
  %23 = icmp sgt i32 %21, %22
  br i1 %23, label %24, label %26

24:                                               ; preds = %15
  %25 = load i32, ptr %5, align 4, !tbaa !4
  store i32 %25, ptr %4, align 4, !tbaa !4
  br label %26

26:                                               ; preds = %24, %15
  br label %27

27:                                               ; preds = %26
  %28 = load ptr, ptr %3, align 8, !tbaa !47
  %29 = getelementptr inbounds nuw %struct._Node, ptr %28, i32 0, i32 0
  %30 = getelementptr inbounds nuw %struct.ConsAltNode, ptr %29, i32 0, i32 4
  %31 = load ptr, ptr %30, align 8, !tbaa !32
  store ptr %31, ptr %3, align 8, !tbaa !47
  %32 = icmp ne ptr %31, null
  br i1 %32, label %15, label %33, !llvm.loop !250

33:                                               ; preds = %27
  call void @llvm.lifetime.end.p0(i64 4, ptr %5) #9
  br label %132

34:                                               ; preds = %1
  %35 = load ptr, ptr %3, align 8, !tbaa !47
  %36 = getelementptr inbounds nuw %struct._Node, ptr %35, i32 0, i32 0
  %37 = getelementptr inbounds nuw %struct.anon.36, ptr %36, i32 0, i32 1
  %38 = load i32, ptr %37, align 4, !tbaa !32
  %39 = and i32 %38, 64
  %40 = icmp ne i32 %39, 0
  br i1 %40, label %41, label %42

41:                                               ; preds = %34
  store i32 3, ptr %2, align 4
  store i32 1, ptr %6, align 4
  br label %134

42:                                               ; preds = %34
  %43 = load ptr, ptr %3, align 8, !tbaa !47
  %44 = getelementptr inbounds nuw %struct._Node, ptr %43, i32 0, i32 0
  %45 = getelementptr inbounds nuw %struct.anon.36, ptr %44, i32 0, i32 3
  %46 = load ptr, ptr %45, align 8, !tbaa !32
  %47 = call i32 @quantifiers_memory_node_info(ptr noundef %46)
  store i32 %47, ptr %4, align 4, !tbaa !4
  br label %48

48:                                               ; preds = %42
  br label %132

49:                                               ; preds = %1
  call void @llvm.lifetime.start.p0(i64 8, ptr %7) #9
  %50 = load ptr, ptr %3, align 8, !tbaa !47
  %51 = getelementptr inbounds nuw %struct._Node, ptr %50, i32 0, i32 0
  store ptr %51, ptr %7, align 8, !tbaa !15
  %52 = load ptr, ptr %7, align 8, !tbaa !15
  %53 = getelementptr inbounds nuw %struct.QuantNode, ptr %52, i32 0, i32 5
  %54 = load i32, ptr %53, align 4, !tbaa !154
  %55 = icmp ne i32 %54, 0
  br i1 %55, label %56, label %62

56:                                               ; preds = %49
  %57 = load ptr, ptr %3, align 8, !tbaa !47
  %58 = getelementptr inbounds nuw %struct._Node, ptr %57, i32 0, i32 0
  %59 = getelementptr inbounds nuw %struct.anon.36, ptr %58, i32 0, i32 3
  %60 = load ptr, ptr %59, align 8, !tbaa !32
  %61 = call i32 @quantifiers_memory_node_info(ptr noundef %60)
  store i32 %61, ptr %4, align 4, !tbaa !4
  br label %62

62:                                               ; preds = %56, %49
  call void @llvm.lifetime.end.p0(i64 8, ptr %7) #9
  br label %132

63:                                               ; preds = %1
  call void @llvm.lifetime.start.p0(i64 8, ptr %8) #9
  %64 = load ptr, ptr %3, align 8, !tbaa !47
  %65 = getelementptr inbounds nuw %struct._Node, ptr %64, i32 0, i32 0
  store ptr %65, ptr %8, align 8, !tbaa !15
  %66 = load ptr, ptr %8, align 8, !tbaa !15
  %67 = getelementptr inbounds nuw %struct.BagNode, ptr %66, i32 0, i32 4
  %68 = load i32, ptr %67, align 8, !tbaa !156
  switch i32 %68, label %126 [
    i32 0, label %69
    i32 1, label %78
    i32 2, label %78
    i32 3, label %84
  ]

69:                                               ; preds = %63
  %70 = load ptr, ptr %3, align 8, !tbaa !47
  %71 = getelementptr inbounds nuw %struct._Node, ptr %70, i32 0, i32 0
  %72 = getelementptr inbounds nuw %struct.anon.36, ptr %71, i32 0, i32 1
  %73 = load i32, ptr %72, align 4, !tbaa !32
  %74 = and i32 %73, 64
  %75 = icmp ne i32 %74, 0
  br i1 %75, label %76, label %77

76:                                               ; preds = %69
  store i32 3, ptr %2, align 4
  store i32 1, ptr %6, align 4
  br label %127

77:                                               ; preds = %69
  store i32 2, ptr %2, align 4
  store i32 1, ptr %6, align 4
  br label %127

78:                                               ; preds = %63, %63
  %79 = load ptr, ptr %3, align 8, !tbaa !47
  %80 = getelementptr inbounds nuw %struct._Node, ptr %79, i32 0, i32 0
  %81 = getelementptr inbounds nuw %struct.anon.36, ptr %80, i32 0, i32 3
  %82 = load ptr, ptr %81, align 8, !tbaa !32
  %83 = call i32 @quantifiers_memory_node_info(ptr noundef %82)
  store i32 %83, ptr %4, align 4, !tbaa !4
  br label %126

84:                                               ; preds = %63
  call void @llvm.lifetime.start.p0(i64 4, ptr %9) #9
  %85 = load ptr, ptr %3, align 8, !tbaa !47
  %86 = getelementptr inbounds nuw %struct._Node, ptr %85, i32 0, i32 0
  %87 = getelementptr inbounds nuw %struct.anon.36, ptr %86, i32 0, i32 3
  %88 = load ptr, ptr %87, align 8, !tbaa !32
  %89 = call i32 @quantifiers_memory_node_info(ptr noundef %88)
  store i32 %89, ptr %4, align 4, !tbaa !4
  %90 = load ptr, ptr %8, align 8, !tbaa !15
  %91 = getelementptr inbounds nuw %struct.BagNode, ptr %90, i32 0, i32 5
  %92 = getelementptr inbounds nuw %struct.anon.40, ptr %91, i32 0, i32 0
  %93 = load ptr, ptr %92, align 8, !tbaa !32
  %94 = icmp ne ptr %93, null
  br i1 %94, label %95, label %107

95:                                               ; preds = %84
  %96 = load ptr, ptr %8, align 8, !tbaa !15
  %97 = getelementptr inbounds nuw %struct.BagNode, ptr %96, i32 0, i32 5
  %98 = getelementptr inbounds nuw %struct.anon.40, ptr %97, i32 0, i32 0
  %99 = load ptr, ptr %98, align 8, !tbaa !32
  %100 = call i32 @quantifiers_memory_node_info(ptr noundef %99)
  store i32 %100, ptr %9, align 4, !tbaa !4
  %101 = load i32, ptr %9, align 4, !tbaa !4
  %102 = load i32, ptr %4, align 4, !tbaa !4
  %103 = icmp sgt i32 %101, %102
  br i1 %103, label %104, label %106

104:                                              ; preds = %95
  %105 = load i32, ptr %9, align 4, !tbaa !4
  store i32 %105, ptr %4, align 4, !tbaa !4
  br label %106

106:                                              ; preds = %104, %95
  br label %107

107:                                              ; preds = %106, %84
  %108 = load ptr, ptr %8, align 8, !tbaa !15
  %109 = getelementptr inbounds nuw %struct.BagNode, ptr %108, i32 0, i32 5
  %110 = getelementptr inbounds nuw %struct.anon.40, ptr %109, i32 0, i32 1
  %111 = load ptr, ptr %110, align 8, !tbaa !32
  %112 = icmp ne ptr %111, null
  br i1 %112, label %113, label %125

113:                                              ; preds = %107
  %114 = load ptr, ptr %8, align 8, !tbaa !15
  %115 = getelementptr inbounds nuw %struct.BagNode, ptr %114, i32 0, i32 5
  %116 = getelementptr inbounds nuw %struct.anon.40, ptr %115, i32 0, i32 1
  %117 = load ptr, ptr %116, align 8, !tbaa !32
  %118 = call i32 @quantifiers_memory_node_info(ptr noundef %117)
  store i32 %118, ptr %9, align 4, !tbaa !4
  %119 = load i32, ptr %9, align 4, !tbaa !4
  %120 = load i32, ptr %4, align 4, !tbaa !4
  %121 = icmp sgt i32 %119, %120
  br i1 %121, label %122, label %124

122:                                              ; preds = %113
  %123 = load i32, ptr %9, align 4, !tbaa !4
  store i32 %123, ptr %4, align 4, !tbaa !4
  br label %124

124:                                              ; preds = %122, %113
  br label %125

125:                                              ; preds = %124, %107
  call void @llvm.lifetime.end.p0(i64 4, ptr %9) #9
  br label %126

126:                                              ; preds = %63, %125, %78
  store i32 0, ptr %6, align 4
  br label %127

127:                                              ; preds = %126, %77, %76
  call void @llvm.lifetime.end.p0(i64 8, ptr %8) #9
  %128 = load i32, ptr %6, align 4
  switch i32 %128, label %134 [
    i32 0, label %129
  ]

129:                                              ; preds = %127
  br label %132

130:                                              ; preds = %1, %1, %1, %1, %1, %1
  br label %131

131:                                              ; preds = %1, %130
  br label %132

132:                                              ; preds = %131, %129, %62, %48, %33
  %133 = load i32, ptr %4, align 4, !tbaa !4
  store i32 %133, ptr %2, align 4
  store i32 1, ptr %6, align 4
  br label %134

134:                                              ; preds = %132, %127, %41
  call void @llvm.lifetime.end.p0(i64 4, ptr %4) #9
  %135 = load i32, ptr %2, align 4
  ret i32 %135
}